; Function Attrs: mustprogress nounwind uwtable
define dso_local void @_ZN4llvm12getHeatColorB5cxx11Ed(ptr dead_on_unwind noalias writable sret(%"class.std::__cxx11::basic_string") align 8 %0, double noundef %1) local_unnamed_addr #0 {
  %3 = alloca %"class.std::allocator", align 1
  %4 = fcmp ogt double %1, 1.000000e+00
  %.0 = select i1 %4, double 1.000000e+00, double %1
  %5 = fcmp olt double %.0, 0.000000e+00
  %.1 = select i1 %5, double 0.000000e+00, double %.0
  %6 = fmul double %.1, 9.900000e+01
  %7 = tail call double @llvm.round.f64(double %6)
  %8 = fptoui double %7 to i32
  %9 = zext i32 %8 to i64
  %10 = getelementptr inbounds [100 x [8 x i8]], ptr @_ZN4llvmL11heatPaletteE, i64 0, i64 %9
  call void @_ZNSaIcEC1Ev(ptr noundef nonnull align 1 dereferenceable(1) %3) #8
  %11 = call noundef ptr @_ZNSt7__cxx1112basic_stringIcSt11char_traitsIcESaIcEE13_M_local_dataEv(ptr noundef nonnull align 8 dereferenceable(32) %0) #8
  call void @_ZNSt7__cxx1112basic_stringIcSt11char_traitsIcESaIcEE12_Alloc_hiderC1EPcRKS3_(ptr noundef nonnull align 8 dereferenceable(8) %0, ptr noundef %11, ptr noundef nonnull align 1 dereferenceable(1) %3) #8
  %12 = call noundef i64 @strlen(ptr noundef nonnull dereferenceable(1) %10) #8
  %13 = getelementptr inbounds i8, ptr %10, i64 %12
  call void @_ZNSt7__cxx1112basic_stringIcSt11char_traitsIcESaIcEE12_M_constructIPKcEEvT_S8_St20forward_iterator_tag(ptr noundef nonnull align 8 dereferenceable(32) %0, ptr noundef nonnull %10, ptr noundef nonnull %13)
  call void @_ZNSaIcED1Ev(ptr noundef nonnull align 1 dereferenceable(1) %3) #8
  ret void
}